target datalayout = "e-m:e-p270:32:32-p271:32:32-p272:64:64-i64:64-i128:128-f80:128-n8:16:32:64-S128"
target triple = "x86_64-pc-linux-gnu"

%struct._mq_parm_t = type { i32, i32, i32, i32, i32, i32, i32, i32, i32, i32, i32, i32, i32, i8, i8, i8, %struct._mq_ccsid_t, %struct._mq_ccsid_t, %struct._mq_ccsid_t, %struct._mq_ccsid_t, %struct._mq_ccsid_t, %struct._mq_ccsid_t, %struct._mq_ccsid_t, [8 x i8], i32, i32, i32 }
%struct._mq_ccsid_t = type { i32, i32 }

@hf_mq_charv_vsptr = internal global i32 0, align 4
@hf_mq_charv_vsoffset = internal global i32 0, align 4
@hf_mq_charv_vsbufsize = internal global i32 0, align 4
@hf_mq_charv_vslength = internal global i32 0, align 4
@hf_mq_charv_vsccsid = internal global i32 0, align 4
@hf_mq_charv_vsvalue = internal global i32 0, align 4
@.str.1823 = private unnamed_addr constant [8 x i8] c"%s - %s\00", align 1
@.str.1824 = private unnamed_addr constant [8 x i8] c"[Empty]\00", align 1

; Function Attrs: null_pointer_is_valid sspstrong uwtable
define internal i32 @dissect_mq_charv(ptr noundef %0, ptr noundef %1, i32 noundef %2, i32 noundef %3, i32 noundef %4, ptr noundef %5, ptr noundef %6) #0 {
  %8 = alloca ptr, align 8
  %9 = alloca ptr, align 8
  %10 = alloca i32, align 4
  %11 = alloca i32, align 4
  %12 = alloca i32, align 4
  %13 = alloca ptr, align 8
  %14 = alloca ptr, align 8
  %15 = alloca ptr, align 8
  %16 = alloca i32, align 4
  %17 = alloca i32, align 4
  %18 = alloca i32, align 4
  %19 = alloca ptr, align 8
  store ptr %0, ptr %8, align 8
  store ptr %1, ptr %9, align 8
  store i32 %2, ptr %10, align 4
  store i32 %3, ptr %11, align 4
  store i32 %4, ptr %12, align 4
  store ptr %5, ptr %13, align 8
  store ptr %6, ptr %14, align 8
  call void @llvm.lifetime.start.p0(i64 8, ptr %15) #9
  call void @llvm.lifetime.start.p0(i64 4, ptr %16) #9
  call void @llvm.lifetime.start.p0(i64 4, ptr %17) #9
  call void @llvm.lifetime.start.p0(i64 4, ptr %18) #9
  call void @llvm.lifetime.start.p0(i64 8, ptr %19) #9
  %20 = load ptr, ptr %8, align 8
  %21 = load i32, ptr %10, align 4
  %22 = add i32 %21, 12
  %23 = load ptr, ptr %14, align 8
  %24 = getelementptr inbounds nuw %struct._mq_parm_t, ptr %23, i32 0, i32 3
  %25 = load i32, ptr %24, align 4
  %26 = call i32 @tvb_get_uint32(ptr noundef %20, i32 noundef %22, i32 noundef %25)
  store i32 %26, ptr %16, align 4
  %27 = load ptr, ptr %8, align 8
  %28 = load i32, ptr %10, align 4
  %29 = add i32 %28, 4
  %30 = load ptr, ptr %14, align 8
  %31 = getelementptr inbounds nuw %struct._mq_parm_t, ptr %30, i32 0, i32 3
  %32 = load i32, ptr %31, align 4
  %33 = call i32 @tvb_get_uint32(ptr noundef %27, i32 noundef %29, i32 noundef %32)
  store i32 %33, ptr %17, align 4
  %34 = load ptr, ptr %8, align 8
  %35 = load i32, ptr %10, align 4
  %36 = add i32 %35, 16
  %37 = load ptr, ptr %14, align 8
  %38 = getelementptr inbounds nuw %struct._mq_parm_t, ptr %37, i32 0, i32 3
  %39 = load i32, ptr %38, align 4
  %40 = call i32 @tvb_get_uint32(ptr noundef %34, i32 noundef %36, i32 noundef %39)
  store i32 %40, ptr %18, align 4
  %41 = load i32, ptr %16, align 4
  %42 = icmp ne i32 %41, 0
  br i1 %42, label %43, label %55

43:                                               ; preds = %7
  %44 = load i32, ptr %17, align 4
  %45 = icmp ne i32 %44, 0
  br i1 %45, label %46, label %55

46:                                               ; preds = %43
  %47 = call ptr @wmem_packet_scope()
  %48 = load ptr, ptr %8, align 8
  %49 = load i32, ptr %17, align 4
  %50 = load i32, ptr %16, align 4
  %51 = load ptr, ptr %14, align 8
  %52 = getelementptr inbounds nuw %struct._mq_parm_t, ptr %51, i32 0, i32 4
  %53 = load i32, ptr %52, align 4
  %54 = call ptr @tvb_get_string_enc(ptr noundef %47, ptr noundef %48, i32 noundef %49, i32 noundef %50, i32 noundef %53)
  store ptr %54, ptr %19, align 8
  br label %56

55:                                               ; preds = %43, %7
  store ptr null, ptr %19, align 8
  br label %56

56:                                               ; preds = %55, %46
  %57 = load ptr, ptr %9, align 8
  %58 = load ptr, ptr %8, align 8
  %59 = load i32, ptr %10, align 4
  %60 = load i32, ptr %11, align 4
  %61 = load i32, ptr %12, align 4
  %62 = load ptr, ptr %13, align 8
  %63 = load ptr, ptr %19, align 8
  %64 = icmp ne ptr %63, null
  br i1 %64, label %65, label %67

65:                                               ; preds = %56
  %66 = load ptr, ptr %19, align 8
  br label %68

67:                                               ; preds = %56
  br label %68

68:                                               ; preds = %67, %65
  %69 = phi ptr [ %66, %65 ], [ @.str.1824, %67 ]
  %70 = call ptr (ptr, ptr, i32, i32, i32, ptr, ptr, ...) @proto_tree_add_subtree_format(ptr noundef %57, ptr noundef %58, i32 noundef %59, i32 noundef %60, i32 noundef %61, ptr noundef null, ptr noundef @.str.1823, ptr noundef %62, ptr noundef %69)
  store ptr %70, ptr %15, align 8
  %71 = load ptr, ptr %15, align 8
  %72 = load i32, ptr @hf_mq_charv_vsptr, align 4
  %73 = load ptr, ptr %8, align 8
  %74 = load i32, ptr %10, align 4
  %75 = load ptr, ptr %14, align 8
  %76 = getelementptr inbounds nuw %struct._mq_parm_t, ptr %75, i32 0, i32 3
  %77 = load i32, ptr %76, align 4
  %78 = call ptr @proto_tree_add_item(ptr noundef %71, i32 noundef %72, ptr noundef %73, i32 noundef %74, i32 noundef 4, i32 noundef %77)
  %79 = load ptr, ptr %15, align 8
  %80 = load i32, ptr @hf_mq_charv_vsoffset, align 4
  %81 = load ptr, ptr %8, align 8
  %82 = load i32, ptr %10, align 4
  %83 = add i32 %82, 4
  %84 = load ptr, ptr %14, align 8
  %85 = getelementptr inbounds nuw %struct._mq_parm_t, ptr %84, i32 0, i32 3
  %86 = load i32, ptr %85, align 4
  %87 = call ptr @proto_tree_add_item(ptr noundef %79, i32 noundef %80, ptr noundef %81, i32 noundef %83, i32 noundef 4, i32 noundef %86)
  %88 = load ptr, ptr %15, align 8
  %89 = load i32, ptr @hf_mq_charv_vsbufsize, align 4
  %90 = load ptr, ptr %8, align 8
  %91 = load i32, ptr %10, align 4
  %92 = add i32 %91, 8
  %93 = load ptr, ptr %14, align 8
  %94 = getelementptr inbounds nuw %struct._mq_parm_t, ptr %93, i32 0, i32 3
  %95 = load i32, ptr %94, align 4
  %96 = call ptr @proto_tree_add_item(ptr noundef %88, i32 noundef %89, ptr noundef %90, i32 noundef %92, i32 noundef 4, i32 noundef %95)
  %97 = load ptr, ptr %15, align 8
  %98 = load i32, ptr @hf_mq_charv_vslength, align 4
  %99 = load ptr, ptr %8, align 8
  %100 = load i32, ptr %10, align 4
  %101 = add i32 %100, 12
  %102 = load ptr, ptr %14, align 8
  %103 = getelementptr inbounds nuw %struct._mq_parm_t, ptr %102, i32 0, i32 3
  %104 = load i32, ptr %103, align 4
  %105 = call ptr @proto_tree_add_item(ptr noundef %97, i32 noundef %98, ptr noundef %99, i32 noundef %101, i32 noundef 4, i32 noundef %104)
  %106 = load ptr, ptr %15, align 8
  %107 = load i32, ptr @hf_mq_charv_vsccsid, align 4
  %108 = load ptr, ptr %8, align 8
  %109 = load i32, ptr %10, align 4
  %110 = add i32 %109, 16
  %111 = load ptr, ptr %14, align 8
  %112 = getelementptr inbounds nuw %struct._mq_parm_t, ptr %111, i32 0, i32 3
  %113 = load i32, ptr %112, align 4
  %114 = call ptr @proto_tree_add_item(ptr noundef %106, i32 noundef %107, ptr noundef %108, i32 noundef %110, i32 noundef 4, i32 noundef %113)
  %115 = load ptr, ptr %15, align 8
  %116 = load i32, ptr @hf_mq_charv_vsvalue, align 4
  %117 = load ptr, ptr %8, align 8
  %118 = load i32, ptr %17, align 4
  %119 = load i32, ptr %16, align 4
  %120 = load i32, ptr %18, align 4
  %121 = icmp eq i32 %120, 500
  br i1 %121, label %125, label %122

122:                                              ; preds = %68
  %123 = load i32, ptr %18, align 4
  %124 = icmp eq i32 %123, 1047
  br label %125

125:                                              ; preds = %122, %68
  %126 = phi i1 [ true, %68 ], [ %124, %122 ]
  %127 = select i1 %126, i32 46, i32 0
  %128 = call ptr @proto_tree_add_item(ptr noundef %115, i32 noundef %116, ptr noundef %117, i32 noundef %118, i32 noundef %119, i32 noundef %127)
  call void @llvm.lifetime.end.p0(i64 8, ptr %19) #9
  call void @llvm.lifetime.end.p0(i64 4, ptr %18) #9
  call void @llvm.lifetime.end.p0(i64 4, ptr %17) #9
  call void @llvm.lifetime.end.p0(i64 4, ptr %16) #9
  call void @llvm.lifetime.end.p0(i64 8, ptr %15) #9
  ret i32 20
}