; Function Attrs: null_pointer_is_valid sspstrong uwtable
define internal fastcc void @dissect_mq_charv(ptr noundef %0, ptr noundef %1, i32 noundef %2, i32 noundef %3, ptr noundef %4, ptr noundef readonly captures(none) %5) unnamed_addr #0 {
  %7 = add i32 %2, 12
  %8 = getelementptr inbounds nuw i8, ptr %5, i64 12
  %9 = load i32, ptr %8, align 4
  %10 = tail call i32 @tvb_get_uint32(ptr noundef %0, i32 noundef %7, i32 noundef %9)
  %11 = add i32 %2, 4
  %12 = load i32, ptr %8, align 4
  %13 = tail call i32 @tvb_get_uint32(ptr noundef %0, i32 noundef %11, i32 noundef %12)
  %14 = add i32 %2, 16
  %15 = load i32, ptr %8, align 4
  %16 = tail call i32 @tvb_get_uint32(ptr noundef %0, i32 noundef %14, i32 noundef %15)
  %17 = icmp ne i32 %10, 0
  %18 = icmp ne i32 %13, 0
  %or.cond = select i1 %17, i1 %18, i1 false
  br i1 %or.cond, label %19, label %24

19:                                               ; preds = %6
  %20 = tail call ptr @wmem_packet_scope()
  %21 = getelementptr inbounds nuw i8, ptr %5, i64 16
  %22 = load i32, ptr %21, align 4
  %23 = tail call ptr @tvb_get_string_enc(ptr noundef %20, ptr noundef %0, i32 noundef %13, i32 noundef %10, i32 noundef %22)
  br label %24

24:                                               ; preds = %6, %19
  %.0 = phi ptr [ %23, %19 ], [ null, %6 ]
  %.not = icmp eq ptr %.0, null
  %25 = select i1 %.not, ptr @.str.1824, ptr %.0
  %26 = tail call ptr (ptr, ptr, i32, i32, i32, ptr, ptr, ...) @proto_tree_add_subtree_format(ptr noundef %1, ptr noundef %0, i32 noundef %2, i32 noundef 20, i32 noundef %3, ptr noundef null, ptr noundef nonnull @.str.1823, ptr noundef %4, ptr noundef nonnull %25)
  %27 = load i32, ptr @hf_mq_charv_vsptr, align 4
  %28 = load i32, ptr %8, align 4
  %29 = tail call ptr @proto_tree_add_item(ptr noundef %26, i32 noundef %27, ptr noundef %0, i32 noundef %2, i32 noundef 4, i32 noundef %28)
  %30 = load i32, ptr @hf_mq_charv_vsoffset, align 4
  %31 = load i32, ptr %8, align 4
  %32 = tail call ptr @proto_tree_add_item(ptr noundef %26, i32 noundef %30, ptr noundef %0, i32 noundef %11, i32 noundef 4, i32 noundef %31)
  %33 = load i32, ptr @hf_mq_charv_vsbufsize, align 4
  %34 = add i32 %2, 8
  %35 = load i32, ptr %8, align 4
  %36 = tail call ptr @proto_tree_add_item(ptr noundef %26, i32 noundef %33, ptr noundef %0, i32 noundef %34, i32 noundef 4, i32 noundef %35)
  %37 = load i32, ptr @hf_mq_charv_vslength, align 4
  %38 = load i32, ptr %8, align 4
  %39 = tail call ptr @proto_tree_add_item(ptr noundef %26, i32 noundef %37, ptr noundef %0, i32 noundef %7, i32 noundef 4, i32 noundef %38)
  %40 = load i32, ptr @hf_mq_charv_vsccsid, align 4
  %41 = load i32, ptr %8, align 4
  %42 = tail call ptr @proto_tree_add_item(ptr noundef %26, i32 noundef %40, ptr noundef %0, i32 noundef %14, i32 noundef 4, i32 noundef %41)
  %43 = load i32, ptr @hf_mq_charv_vsvalue, align 4
  %44 = icmp eq i32 %16, 500
  %45 = icmp eq i32 %16, 1047
  %46 = or i1 %44, %45
  %47 = select i1 %46, i32 46, i32 0
  %48 = tail call ptr @proto_tree_add_item(ptr noundef %26, i32 noundef %43, ptr noundef %0, i32 noundef %13, i32 noundef %10, i32 noundef %47)
  ret void
}